; Function Attrs: nounwind uwtable
define hidden ptr @_PyErr_StackItemToExcInfoTuple(ptr noundef readonly captures(none) %0) local_unnamed_addr #0 {
  %2 = load ptr, ptr %0, align 8, !tbaa !39
  %3 = icmp eq ptr %2, null
  %4 = icmp eq ptr %2, @_Py_NoneStruct
  %or.cond.i = or i1 %3, %4
  br i1 %or.cond.i, label %get_exc_traceback.exit, label %5

5:                                                ; preds = %1
  %6 = getelementptr i8, ptr %2, i64 8
  %.val.i = load ptr, ptr %6, align 8, !tbaa !21
  %7 = tail call ptr @PyException_GetTraceback(ptr noundef nonnull %2) #17
  %.not.i.i = icmp eq ptr %7, null
  br i1 %.not.i.i, label %get_exc_traceback.exit, label %8

8:                                                ; preds = %5
  %9 = load i32, ptr %7, align 8, !tbaa !20
  %.not.i.i.i = icmp sgt i32 %9, -1
  br i1 %.not.i.i.i, label %10, label %get_exc_traceback.exit

10:                                               ; preds = %8
  %11 = add nsw i32 %9, -1
  store i32 %11, ptr %7, align 8, !tbaa !20
  %12 = icmp eq i32 %11, 0
  br i1 %12, label %13, label %get_exc_traceback.exit

13:                                               ; preds = %10
  tail call void @_Py_Dealloc(ptr noundef nonnull %7) #17
  br label %get_exc_traceback.exit

get_exc_traceback.exit:                           ; preds = %1, %5, %8, %10, %13
  %.0.i14 = phi ptr [ %.val.i, %5 ], [ %.val.i, %8 ], [ %.val.i, %10 ], [ %.val.i, %13 ], [ @_Py_NoneStruct, %1 ]
  %.0.i12 = phi ptr [ @_Py_NoneStruct, %5 ], [ %7, %8 ], [ %7, %10 ], [ %7, %13 ], [ @_Py_NoneStruct, %1 ]
  %.not = icmp eq ptr %.0.i14, null
  %14 = select i1 %.not, ptr @_Py_NoneStruct, ptr %.0.i14
  %15 = select i1 %3, ptr @_Py_NoneStruct, ptr %2
  %16 = tail call ptr (i64, ...) @PyTuple_Pack(i64 noundef 3, ptr noundef nonnull %14, ptr noundef nonnull %15, ptr noundef nonnull %.0.i12) #17
  ret ptr %16
}